(dp0
S'es|the'
p1
F0.13802446771396254
sS'mas|is'
p2
F0.003556030829912963
sS'bajo|short'
p3
F0.5314500329123684
sS'es|organized'
p4
F0.32116697061955995
sS'aqui|fat'
p5
F0.002554982337944456
sS'suave|is'
p6
F0.005847923532958979
sS'bajo|who'
p7
F0.01771277141419188
sS'organizado|who'
p8
F0.012216497440554912
sS'gordo|NULL'
p9
F0.1445645144004493
sS'bajo|NULL'
p10
F0.01234637966774266
sS'hombre|NULL'
p11
F0.35216324237525426
sS'es|man'
p12
F0.11445563889745641
sS'el|here'
p13
F0.01712766923120258
sS'es|short'
p14
F0.2504669874699284
sS'gordo|most'
p15
F0.006204570467859639
sS'hombre|fat'
p16
F0.077253565334248
sS'es|not'
p17
F0.12336821682589628
sS'un|NULL'
p18
F0.10618871528363304
sS'quien|fat'
p19
F0.03943801916218456
sS'linda|who'
p20
F0.021808144570671005
sS'hombre|not'
p21
F0.20986295569432667
sS'aqui|NULL'
p22
F0.07677142335437923
sS'hombre|he'
p23
F0.06782729934057594
sS'soy|am'
p24
F0.013596860065567696
sS'linda|NULL'
p25
F0.008542235795746912
sS'gordo|is'
p26
F0.06744779912026516
sS'el|he'
p27
F0.5873693077475491
sS'organizado|is'
p28
F0.006408511686879506
sS'quien|skinny'
p29
F0.23825909141415771
sS'hombre|am'
p30
F0.3864888300304274
sS'gordo|a'
p31
F0.010204361991457238
sS'linda|cute'
p32
F0.5197365699950046
sS'un|am'
p33
F0.10273214328289451
sS'mas|man'
p34
F0.015107203161723958
sS'el|not'
p35
F0.025860093883572677
sS'aqui|here'
p36
F0.45971479345025573
sS'es|NULL'
p37
F0.047270565205668004
sS'esta|the'
p38
F0.010054174958321897
sS'hombre|is'
p39
F0.08866298769296758
sS'linda|is'
p40
F0.011496160829392194
sS'flaco|is'
p41
F0.018553564567571183
sS'quien|who'
p42
F0.840085233221675
sS'gordo|man'
p43
F0.02413294759490402
sS'es|suave'
p44
F0.2872093948126229
sS'quien|NULL'
p45
F0.016797689293316057
sS'es|he'
p46
F0.32705714270993724
sS'bajo|is'
p47
F0.007332811361815832
sS'el|is'
p48
F0.012774433496804138
sS'esta|man'
p49
F0.22943186748170977
sS'flaco|NULL'
p50
F0.00478597036044607
sS'esta|here'
p51
F0.3370034934114012
sS'soy|a'
p52
F0.0061123708862571
sS'es|skinny'
p53
F0.3938438503865449
sS'un|i'
p54
F0.14898698949909278
sS'el|most'
p55
F0.2883693663579866
sS'un|here'
p56
F0.004456706960600815
sS'un|a'
p57
F0.5870328515908638
sS'es|cute'
p58
F0.32032635934178033
sS'un|man'
p59
F0.1237960006960306
sS'organizado|NULL'
p60
F0.005216508660575426
sS'organizado|organized'
p61
F0.5624145760959541
sS'mas|the'
p62
F0.008841881808078099
sS'quien|is'
p63
F0.0474248812053557
sS'es|tall'
p64
F0.30753652186300184
sS'es|fat'
p65
F0.1937428990670464
sS'no|is'
p66
F0.0019170243223360242
sS'hombre|here'
p67
F0.167936204248284
sS'alto|who'
p68
F0.003551255856974648
sS'gordo|who'
p69
F0.0021665013500216453
sS'quien|he'
p70
F0.00045874346641955625
sS'es|is'
p71
F0.6267880525648521
sS'es|who'
p72
F0.042293954317145215
sS'aqui|the'
p73
F3.536217633344591e-05
sS'aqui|man'
p74
F0.05098105304446961
sS'flaco|who'
p75
F0.03945359135457731
sS'un|not'
p76
F0.04521267152982048
sS'aqui|is'
p77
F0.03199715654352166
sS'hombre|a'
p78
F0.22127365735867643
sS'soy|NULL'
p79
F0.010064959406286822
sS'alto|NULL'
p80
F0.011906324267998656
sS'flaco|skinny'
p81
F0.3678970581992976
sS'quien|organized'
p82
F0.11641845328448604
sS'hombre|i'
p83
F0.023020358362895954
sS'mas|fat'
p84
F0.016275694357493955
sS'quien|tall'
p85
F0.16629810802576556
sS'el|the'
p86
F0.3191643850124198
sS'suave|suave'
p87
F0.5900153490607731
sS'mas|NULL'
p88
F0.005270897758877966
sS'yo|man'
p89
F0.0013038308572639239
sS'gordo|the'
p90
F0.1273584061628106
sS'el|NULL'
p91
F0.1536825909026891
sS'yo|a'
p92
F0.013001539926877971
sS'es|most'
p93
F0.11094867216363091
sS'suave|NULL'
p94
F0.0037123353017706143
sS'yo|i'
p95
F0.2777232706211437
sS'soy|i'
p96
F0.5502693815168676
sS'no|not'
p97
F0.5956960620663838
sS'un|he'
p98
F0.0086620697178573
sS'gordo|here'
p99
F0.013761132698256228
sS'quien|cute'
p100
F0.15993707066321486
sS'esta|a'
p101
F0.06408602208621868
sS'es|a'
p102
F0.054456072835333345
sS'no|NULL'
p103
F0.010098087388452947
sS'quien|short'
p104
F0.21808297961770332
sS'hombre|the'
p105
F0.3965213221680736
sS'hombre|man'
p106
F0.02067495643967084
sS'esta|fat'
p107
F0.03683804470492605
sS'soy|man'
p108
F0.011574891932755522
sS'yo|am'
p109
F0.4971821666211104
sS'mas|most'
p110
F0.5646499931888674
sS'quien|suave'
p111
F0.12277525612660388
sS'el|a'
p112
F0.0009134239589365583
sS'hombre|most'
p113
F0.029827397821655485
sS'esta|is'
p114
F0.01599464231275301
sS'el|man'
p115
F0.3919059209438536
sS'un|fat'
p116
F0.027138887246881908
sS'no|he'
p117
F0.008625437017660591
sS'yo|NULL'
p118
F0.009629260018290498
sS'el|who'
p119
F0.008345224424040587
sS'un|is'
p120
F0.03795215990452482
sS'no|a'
p121
F0.011319425647887127
sS'suave|who'
p122
F0.012366826050147736
sS'alto|tall'
p123
F0.5261653701112327
sS'el|fat'
p124
F0.12722419682459823
sS'aqui|a'
p125
F0.03160027371749186
sS'gordo|fat'
p126
F0.4795337109646763
sS'no|man'
p127
F0.01663568895016157
sS'esta|NULL'
p128
F0.0209883005584215
sS'alto|is'
p129
F0.015845860028089076
s.