(dp0
S'0|1,7,6'
p1
F0.21718098149456938
sS'6|1,7,6'
p2
F0.0395747556417291
sS'3|3,5,4'
p3
F0.16269689509031596
sS'4|1,5,4'
p4
F0.12650970209434
sS'2|3,5,4'
p5
F0.13153788931151342
sS'5|1,6,5'
p6
F0.06018387316589853
sS'4|3,6,5'
p7
F0.2921852110314298
sS'6|4,7,6'
p8
F0.05087471176783428
sS'4|0,5,4'
p9
F0.08368642119685762
sS'0|2,5,4'
p10
F0.0821362340844691
sS'2|1,7,6'
p11
F0.0013574943468625015
sS'1|3,6,5'
p12
F0.06985492490482767
sS'4|5,7,6'
p13
F0.18626264105076873
sS'1|3,5,4'
p14
F0.07029224486835509
sS'2|1,4,3'
p15
F0.601695977386786
sS'2|0,5,4'
p16
F0.24546119430798
sS'1|0,6,5'
p17
F0.6151570265334114
sS'0|0,5,4'
p18
F0.16194974179377142
sS'2|2,6,5'
p19
F0.23840490021470928
sS'5|0,6,5'
p20
F0.10015104685736853
sS'1|2,4,3'
p21
F0.1679515095644299
sS'1|1,5,4'
p22
F0.53731706119198
sS'2|5,7,6'
p23
F0.008136594523011378
sS'3|2,5,4'
p24
F0.3128034360034798
sS'4|2,6,5'
p25
F0.14954702353550856
sS'3|0,4,3'
p26
F0.19162826686591528
sS'0|3,5,4'
p27
F0.3218055291435959
sS'2|3,6,5'
p28
F0.11811408721750598
sS'3|3,6,5'
p29
F0.15523444966243127
sS'0|2,4,3'
p30
F0.07960369773615066
sS'2|1,5,4'
p31
F0.03240971156233982
sS'4|4,7,6'
p32
F0.017673651105672167
sS'0|4,7,6'
p33
F0.03817925169645158
sS'1|0,7,6'
p34
F0.13391583993916809
sS'4|3,7,6'
p35
F0.13391583993916809
sS'2|0,4,3'
p36
F0.048887478983428136
sS'3|1,5,4'
p37
F0.11725679349562547
sS'1|0,5,4'
p38
F0.47175579471245127
sS'0|0,4,3'
p39
F0.011571131932515716
sS'3|4,7,6'
p40
F0.0377254369128056
sS'3|1,7,6'
p41
F0.09769747469476406
sS'1|2,5,4'
p42
F0.1324952971644496
sS'3|3,7,6'
p43
F0.00934009301800555
sS'5|0,7,6'
p44
F0.19808503677099476
sS'6|2,7,6'
p45
F0.11190937978066137
sS'5|4,6,5'
p46
F0.2958502768375345
sS'0|5,7,6'
p47
F0.2215605716179463
sS'3|0,5,4'
p48
F0.03714684798893971
sS'5|3,7,6'
p49
F0.19808503677099476
sS'0|1,4,3'
p50
F0.02188051280844855
sS'2|0,7,6'
p51
F0.2816538345401331
sS'1|1,4,3'
p52
F0.03143879406997274
sS'1|0,4,3'
p53
F0.7479131222181403
sS'5|2,6,5'
p54
F0.201330253073985
sS'0|2,7,6'
p55
F0.006959951032839212
sS'1|1,7,6'
p56
F0.3016057812977914
sS'5|5,7,6'
p57
F0.008524016158834729
sS'3|5,7,6'
p58
F0.15465789896114265
sS'4|1,7,6'
p59
F0.3016057812977914
sS'4|4,6,5'
p60
F0.12826193626885218
sS'0|1,5,4'
p61
F0.18650673165571469
sS'0|4,6,5'
p62
F0.2589222899363504
sS'3|2,6,5'
p63
F0.0844989368868115
sS'1|2,6,5'
p64
F0.17350741223413485
sS'6|3,7,6'
p65
F0.13218447428399027
sS'4|2,5,4'
p66
F0.2619291212006818
sS'1|5,7,6'
p67
F0.18626264105076873
sS'2|2,5,4'
p68
F0.21063591154691982
sS'3|0,6,5'
p69
F0.037108762382925854
sS'4|0,7,6'
p70
F0.13391583993916809
sS'3|1,6,5'
p71
F0.40958302942055413
sS'5|4,7,6'
p72
F0.7757322913745831
sS'2|2,4,3'
p73
F0.11006104902249153
sS'2|4,7,6'
p74
F0.062141006036981264
sS'5|3,6,5'
p75
F0.2599359598770218
sS'1|2,7,6'
p76
F0.17590583071602714
sS'2|0,6,5'
p77
F0.052356606238467156
sS'0|3,6,5'
p78
F0.10467536730678342
sS'5|2,7,6'
p79
F0.15242445536286908
sS'0|0,7,6'
p80
F0.1109048815085401
sS'2|3,7,6'
p81
F0.2816538345401331
sS'6|0,7,6'
p82
F0.13218447428399027
sS'0|3,7,6'
p83
F0.1109048815085401
sS'0|1,6,5'
p84
F0.20165488102387535
sS'0|2,6,5'
p85
F0.1527114740548505
sS'3|2,4,3'
p86
F0.6423837436769282
sS'4|3,5,4'
p87
F0.31366744158621956
sS'1|3,7,6'
p88
F0.13391583993916809
sS'2|1,6,5'
p89
F0.16584818100774393
sS'4|0,6,5'
p90
F0.034077534255829336
sS'3|0,7,6'
p91
F0.00934009301800555
sS'1|4,6,5'
p92
F0.09495729093279226
sS'3|1,4,3'
p93
F0.3449847157347923
sS'6|5,7,6'
p94
F0.23459563663752764
sS'3|2,7,6'
p95
F0.3165344660277809
sS'5|1,7,6'
p96
F0.04097773122649219
sS'2|2,7,6'
p97
F0.06036008636379555
sS'2|4,6,5'
p98
F0.050833623764434295
sS'4|2,7,6'
p99
F0.17590583071602714
sS'0|0,6,5'
p100
F0.16114902373199752
sS'1|1,6,5'
p101
F0.038325631018900894
sS'4|1,6,5'
p102
F0.1244044043630271
sS'1|4,7,6'
p103
F0.017673651105672167
sS'3|4,6,5'
p104
F0.17117458226003604
s.